; Function Attrs: mustprogress nounwind uwtable
define internal fastcc void @"_ZZN8facebook6hermes7tracing24makeTracingHermesRuntimeESt10unique_ptrINS0_13HermesRuntimeESt14default_deleteIS3_EERKN6hermes2vm13RuntimeConfigERKNSt7__cxx1112basic_stringIcSt11char_traitsIcESaIcEEESJ_St8functionIFbvEEEN3$_0D2Ev"(ptr noundef nonnull align 8 dereferenceable(96) %this) unnamed_addr #3 align 2 personality ptr @__gxx_personality_v0 {
entry:
  %0 = getelementptr inbounds i8, ptr %this, i64 64
  tail call void @_ZNSt7__cxx1112basic_stringIcSt11char_traitsIcESaIcEED1Ev(ptr noundef nonnull align 8 dereferenceable(32) %0) #27
  %1 = getelementptr inbounds i8, ptr %this, i64 32
  tail call void @_ZNSt7__cxx1112basic_stringIcSt11char_traitsIcESaIcEED1Ev(ptr noundef nonnull align 8 dereferenceable(32) %1) #27
  %_M_manager.i.i = getelementptr inbounds i8, ptr %this, i64 16
  %2 = load ptr, ptr %_M_manager.i.i, align 8
  %tobool.not.i.i = icmp eq ptr %2, null
  br i1 %tobool.not.i.i, label %_ZNSt8functionIFbvEED2Ev.exit, label %if.then.i.i

if.then.i.i:                                      ; preds = %entry
  %call.i.i = invoke noundef zeroext i1 %2(ptr noundef nonnull align 8 dereferenceable(16) %this, ptr noundef nonnull align 8 dereferenceable(16) %this, i32 noundef 3)
          to label %_ZNSt8functionIFbvEED2Ev.exit unwind label %terminate.lpad.i.i

terminate.lpad.i.i:                               ; preds = %if.then.i.i
  %3 = landingpad { ptr, i32 }
          catch ptr null
  %4 = extractvalue { ptr, i32 } %3, 0
  tail call void @__clang_call_terminate(ptr %4) #29
  unreachable

_ZNSt8functionIFbvEED2Ev.exit:                    ; preds = %entry, %if.then.i.i
  ret void
}